; ModuleID = 'source-C-CXX/39/2823.c'
source_filename = "source-C-CXX/39/2823.c"
target datalayout = "e-m:e-p270:32:32-p271:32:32-p272:64:64-i64:64-f80:128-n8:16:32:64-S128"
target triple = "x86_64-pc-linux-gnu"

@.str = private unnamed_addr constant [4 x i8] c"%lf\00", align 1
@.str.1 = private unnamed_addr constant [6 x i8] c"%.4lf\00", align 1
@.str.2 = private unnamed_addr constant [14 x i8] c"Invalid input\00", align 1

; Function Attrs: nofree nounwind sspstrong uwtable
define dso_local i32 @main() local_unnamed_addr #0 {
  %1 = alloca double, align 8
  %2 = alloca double, align 8
  %3 = alloca double, align 8
  %4 = alloca double, align 8
  %5 = alloca double, align 8
  %6 = bitcast double* %1 to i8*
  call void @llvm.lifetime.start.p0i8(i64 8, i8* nonnull %6) #5
  %7 = bitcast double* %2 to i8*
  call void @llvm.lifetime.start.p0i8(i64 8, i8* nonnull %7) #5
  %8 = bitcast double* %3 to i8*
  call void @llvm.lifetime.start.p0i8(i64 8, i8* nonnull %8) #5
  %9 = bitcast double* %4 to i8*
  call void @llvm.lifetime.start.p0i8(i64 8, i8* nonnull %9) #5
  %10 = bitcast double* %5 to i8*
  call void @llvm.lifetime.start.p0i8(i64 8, i8* nonnull %10) #5
  %11 = call i32 (i8*, ...) @__isoc99_scanf(i8* getelementptr inbounds ([4 x i8], [4 x i8]* @.str, i64 0, i64 0), double* nonnull %1)
  %12 = call i32 (i8*, ...) @__isoc99_scanf(i8* getelementptr inbounds ([4 x i8], [4 x i8]* @.str, i64 0, i64 0), double* nonnull %2)
  %13 = call i32 (i8*, ...) @__isoc99_scanf(i8* getelementptr inbounds ([4 x i8], [4 x i8]* @.str, i64 0, i64 0), double* nonnull %3)
  %14 = call i32 (i8*, ...) @__isoc99_scanf(i8* getelementptr inbounds ([4 x i8], [4 x i8]* @.str, i64 0, i64 0), double* nonnull %4)
  %15 = call i32 (i8*, ...) @__isoc99_scanf(i8* getelementptr inbounds ([4 x i8], [4 x i8]* @.str, i64 0, i64 0), double* nonnull %5)
  %16 = load double, double* %1, align 8, !tbaa !5
  %17 = load double, double* %2, align 8, !tbaa !5
  %18 = fadd double %16, %17
  %19 = load double, double* %3, align 8, !tbaa !5
  %20 = fadd double %18, %19
  %21 = load double, double* %4, align 8, !tbaa !5
  %22 = fadd double %20, %21
  %23 = fmul double %22, 5.000000e-01
  %24 = load double, double* %5, align 8, !tbaa !5
  %25 = fdiv double %24, 3.600000e+02
  %26 = fmul double %25, 1.000000e+02
  %27 = fsub double %23, %16
  %28 = fsub double %23, %17
  %29 = fmul double %27, %28
  %30 = fsub double %23, %19
  %31 = fmul double %30, %29
  %32 = fsub double %23, %21
  %33 = fmul double %32, %31
  %34 = fmul double %16, %17
  %35 = fmul double %34, %19
  %36 = fmul double %35, %21
  %37 = call double @cos(double %26) #5
  %38 = fmul double %36, %37
  %39 = call double @cos(double %26) #5
  %40 = fmul double %38, %39
  %41 = fsub double %33, %40
  %42 = fcmp ult double %41, 0.000000e+00
  br i1 %42, label %76, label %43

43:                                               ; preds = %0
  %44 = load double, double* %1, align 8, !tbaa !5
  %45 = load double, double* %2, align 8, !tbaa !5
  %46 = load double, double* %3, align 8, !tbaa !5
  %47 = load double, double* %4, align 8, !tbaa !5
  %48 = load double, double* %5, align 8, !tbaa !5
  %49 = fadd double %44, %45
  %50 = fadd double %49, %46
  %51 = fadd double %50, %47
  %52 = fmul double %51, 5.000000e-01
  %53 = fdiv double %48, 3.600000e+02
  %54 = fmul double %53, 1.000000e+02
  %55 = fsub double %52, %44
  %56 = fsub double %52, %45
  %57 = fmul double %55, %56
  %58 = fsub double %52, %46
  %59 = fmul double %58, %57
  %60 = fsub double %52, %47
  %61 = fmul double %60, %59
  %62 = fmul double %44, %45
  %63 = fmul double %62, %46
  %64 = fmul double %63, %47
  %65 = call double @cos(double %54) #5
  %66 = fmul double %64, %65
  %67 = call double @cos(double %54) #5
  %68 = fmul double %66, %67
  %69 = fsub double %61, %68
  %70 = fcmp ult double %69, 0.000000e+00
  br i1 %70, label %73, label %71

71:                                               ; preds = %43
  %72 = call double @sqrt(double %69) #5
  br label %73

73:                                               ; preds = %43, %71
  %74 = phi double [ %72, %71 ], [ undef, %43 ]
  %75 = call i32 (i8*, ...) @printf(i8* nonnull dereferenceable(1) getelementptr inbounds ([6 x i8], [6 x i8]* @.str.1, i64 0, i64 0), double %74)
  br label %78

76:                                               ; preds = %0
  %77 = call i32 (i8*, ...) @printf(i8* nonnull dereferenceable(1) getelementptr inbounds ([14 x i8], [14 x i8]* @.str.2, i64 0, i64 0))
  br label %78

78:                                               ; preds = %76, %73
  call void @llvm.lifetime.end.p0i8(i64 8, i8* nonnull %10) #5
  call void @llvm.lifetime.end.p0i8(i64 8, i8* nonnull %9) #5
  call void @llvm.lifetime.end.p0i8(i64 8, i8* nonnull %8) #5
  call void @llvm.lifetime.end.p0i8(i64 8, i8* nonnull %7) #5
  call void @llvm.lifetime.end.p0i8(i64 8, i8* nonnull %6) #5
  ret i32 0
}

; Function Attrs: argmemonly mustprogress nofree nosync nounwind willreturn
declare void @llvm.lifetime.start.p0i8(i64 immarg, i8* nocapture) #1

; Function Attrs: nofree nounwind
declare noundef i32 @__isoc99_scanf(i8* nocapture noundef readonly, ...) local_unnamed_addr #2

; Function Attrs: mustprogress nofree nounwind willreturn
declare double @cos(double) local_unnamed_addr #3

; Function Attrs: mustprogress nofree nounwind sspstrong uwtable willreturn
define dso_local double @mianji(double %0, double %1, double %2, double %3, double %4) local_unnamed_addr #4 {
  %6 = fadd double %0, %1
  %7 = fadd double %6, %2
  %8 = fadd double %7, %3
  %9 = fmul double %8, 5.000000e-01
  %10 = fdiv double %4, 3.600000e+02
  %11 = fmul double %10, 1.000000e+02
  %12 = fsub double %9, %0
  %13 = fsub double %9, %1
  %14 = fmul double %12, %13
  %15 = fsub double %9, %2
  %16 = fmul double %15, %14
  %17 = fsub double %9, %3
  %18 = fmul double %17, %16
  %19 = fmul double %0, %1
  %20 = fmul double %19, %2
  %21 = fmul double %20, %3
  %22 = tail call double @cos(double %11) #5
  %23 = fmul double %21, %22
  %24 = tail call double @cos(double %11) #5
  %25 = fmul double %23, %24
  %26 = fsub double %18, %25
  %27 = fcmp ult double %26, 0.000000e+00
  br i1 %27, label %30, label %28

28:                                               ; preds = %5
  %29 = tail call double @sqrt(double %26) #5
  br label %30

30:                                               ; preds = %5, %28
  %31 = phi double [ %29, %28 ], [ undef, %5 ]
  ret double %31
}

; Function Attrs: nofree nounwind
declare noundef i32 @printf(i8* nocapture noundef readonly, ...) local_unnamed_addr #2

; Function Attrs: argmemonly mustprogress nofree nosync nounwind willreturn
declare void @llvm.lifetime.end.p0i8(i64 immarg, i8* nocapture) #1

; Function Attrs: mustprogress nofree nounwind willreturn
declare double @sqrt(double) local_unnamed_addr #3


!llvm.module.flags = !{!0, !1, !2, !3}
!llvm.ident = !{!4}

!0 = !{i32 1, !"wchar_size", i32 4}
!1 = !{i32 7, !"PIC Level", i32 2}
!2 = !{i32 7, !"PIE Level", i32 2}
!3 = !{i32 7, !"uwtable", i32 1}
!4 = !{!"clang version 13.0.0"}
!5 = !{!6, !6, i64 0}
!6 = !{!"double", !7, i64 0}
!7 = !{!"omnipotent char", !8, i64 0}
!8 = !{!"Simple C/C++ TBAA"}
